; Function Attrs: mustprogress uwtable
define noundef zeroext i1 @_ZN5Ipopt16StdInterfaceTNLP6eval_gEiPKdbiPd(ptr nocapture noundef nonnull align 8 dereferenceable(264) %0, i32 noundef %1, ptr noundef %2, i1 noundef zeroext %3, i32 noundef %4, ptr noundef %5) unnamed_addr #0 align 2 {
  br i1 %3, label %7, label %_ZN5Ipopt16StdInterfaceTNLP11apply_new_xEbiPKd.exit

7:                                                ; preds = %6
  %8 = getelementptr inbounds i8, ptr %0, i64 192
  %9 = load ptr, ptr %8, align 8
  %10 = icmp eq ptr %9, null
  br i1 %10, label %11, label %17

11:                                               ; preds = %7
  %12 = zext nneg i32 %1 to i64
  %13 = icmp slt i32 %1, 0
  %14 = shl nuw nsw i64 %12, 3
  %15 = select i1 %13, i64 -1, i64 %14
  %16 = tail call noalias noundef nonnull ptr @_Znam(i64 noundef %15) #13
  store ptr %16, ptr %8, align 8
  br label %17

17:                                               ; preds = %11, %7
  %18 = phi ptr [ %16, %11 ], [ %9, %7 ]
  tail call void @_ZN5Ipopt10IpBlasCopyEiPKdiPdi(i32 noundef %1, ptr noundef %2, i32 noundef 1, ptr noundef nonnull %18, i32 noundef 1)
  br label %_ZN5Ipopt16StdInterfaceTNLP11apply_new_xEbiPKd.exit

_ZN5Ipopt16StdInterfaceTNLP11apply_new_xEbiPKd.exit: ; preds = %6, %17
  %19 = getelementptr inbounds i8, ptr %0, i64 120
  %20 = load ptr, ptr %19, align 8
  %21 = getelementptr inbounds i8, ptr %0, i64 192
  %22 = load ptr, ptr %21, align 8
  %23 = getelementptr inbounds i8, ptr %0, i64 160
  %24 = load ptr, ptr %23, align 8
  %25 = tail call noundef zeroext i1 %20(i32 noundef %1, ptr noundef %22, i1 noundef zeroext %3, i32 noundef %4, ptr noundef %5, ptr noundef %24)
  ret i1 %25
}